target datalayout = "e-m:e-p270:32:32-p271:32:32-p272:64:64-i64:64-i128:128-f80:128-n8:16:32:64-S128"
target triple = "x86_64-pc-linux-gnu"

%"struct.__cxxabiv1::__cxa_eh_globals" = type { ptr, i32 }

; Function Attrs: mustprogress nounwind uwtable
define dso_local i32 @__cxa_uncaught_exceptions() #0 personality ptr @__gxx_personality_v0 {
  %1 = alloca i32, align 4
  %2 = alloca ptr, align 8
  %3 = alloca i32, align 4
  call void @llvm.lifetime.start.p0(i64 8, ptr %2) #14
  %4 = invoke ptr @__cxa_get_globals_fast()
          to label %5 unwind label %15

5:                                                ; preds = %0
  store ptr %4, ptr %2, align 8, !tbaa !18
  %6 = load ptr, ptr %2, align 8, !tbaa !18
  %7 = icmp eq ptr %6, null
  br i1 %7, label %8, label %9

8:                                                ; preds = %5
  store i32 0, ptr %1, align 4
  store i32 1, ptr %3, align 4
  br label %13

9:                                                ; preds = %5
  %10 = load ptr, ptr %2, align 8, !tbaa !18
  %11 = getelementptr inbounds nuw %"struct.__cxxabiv1::__cxa_eh_globals", ptr %10, i32 0, i32 1
  %12 = load i32, ptr %11, align 8, !tbaa !30
  store i32 %12, ptr %1, align 4
  store i32 1, ptr %3, align 4
  br label %13

13:                                               ; preds = %9, %8
  call void @llvm.lifetime.end.p0(i64 8, ptr %2) #14
  %14 = load i32, ptr %1, align 4
  ret i32 %14

15:                                               ; preds = %0
  %16 = landingpad { ptr, i32 }
          catch ptr null
  %17 = extractvalue { ptr, i32 } %16, 0
  call void @__clang_call_terminate(ptr %17) #15
  unreachable
}