; Function Attrs: mustprogress nounwind uwtable
define dso_local i32 @__cxa_uncaught_exceptions() local_unnamed_addr #2 personality ptr @__gxx_personality_v0 {
  %1 = invoke ptr @__cxa_get_globals_fast()
          to label %2 unwind label %8

2:                                                ; preds = %0
  %3 = icmp eq ptr %1, null
  br i1 %3, label %7, label %4

4:                                                ; preds = %2
  %5 = getelementptr inbounds nuw i8, ptr %1, i64 8
  %6 = load i32, ptr %5, align 8, !tbaa !18
  br label %7

7:                                                ; preds = %2, %4
  %.0 = phi i32 [ %6, %4 ], [ 0, %2 ]
  ret i32 %.0

8:                                                ; preds = %0
  %9 = landingpad { ptr, i32 }
          catch ptr null
  %10 = extractvalue { ptr, i32 } %9, 0
  tail call void @__clang_call_terminate(ptr %10) #16
  unreachable
}